; Function Attrs: nounwind uwtable
define range(i32 -2, 1) i32 @IDAGetNumJTSetupEvals(ptr noundef %0, ptr noundef writeonly captures(none) %1) local_unnamed_addr #0 {
  %3 = icmp eq ptr %0, null
  br i1 %3, label %4, label %5

4:                                                ; preds = %2
  tail call void (ptr, i32, i32, ptr, ptr, ptr, ...) @IDAProcessError(ptr noundef null, i32 noundef -1, i32 noundef 1766, ptr noundef nonnull @__func__.IDAGetNumJTSetupEvals, ptr noundef nonnull @.str, ptr noundef nonnull @.str.1) #13
  br label %idaLs_AccessLMem.exit.thread

5:                                                ; preds = %2
  %6 = getelementptr inbounds nuw i8, ptr %0, i64 1048
  %7 = load ptr, ptr %6, align 8, !tbaa !65
  %8 = icmp eq ptr %7, null
  br i1 %8, label %9, label %idaLs_AccessLMem.exit

9:                                                ; preds = %5
  tail call void (ptr, i32, i32, ptr, ptr, ptr, ...) @IDAProcessError(ptr noundef nonnull %0, i32 noundef -2, i32 noundef 1773, ptr noundef nonnull @__func__.IDAGetNumJTSetupEvals, ptr noundef nonnull @.str, ptr noundef nonnull @.str.30) #13
  br label %idaLs_AccessLMem.exit.thread

idaLs_AccessLMem.exit:                            ; preds = %5
  %10 = getelementptr inbounds nuw i8, ptr %7, i64 176
  %11 = load i64, ptr %10, align 8, !tbaa !83
  store i64 %11, ptr %1, align 8, !tbaa !114
  br label %idaLs_AccessLMem.exit.thread

idaLs_AccessLMem.exit.thread:                     ; preds = %9, %4, %idaLs_AccessLMem.exit
  %.0 = phi i32 [ 0, %idaLs_AccessLMem.exit ], [ -2, %9 ], [ -1, %4 ]
  ret i32 %.0
}